target datalayout = "e-m:e-p270:32:32-p271:32:32-p272:64:64-i64:64-i128:128-f80:128-n8:16:32:64-S128"
target triple = "x86_64-pc-linux-gnu"

%struct.pg_conn = type { ptr, ptr, ptr, ptr, ptr, ptr, ptr, ptr, ptr, ptr, ptr, ptr, ptr, ptr, ptr, ptr, ptr, ptr, ptr, ptr, ptr, ptr, ptr, ptr, ptr, ptr, ptr, ptr, ptr, ptr, ptr, ptr, ptr, ptr, ptr, ptr, ptr, ptr, ptr, ptr, ptr, ptr, ptr, i8, ptr, i32, %struct.PGNoticeHooks, ptr, i32, i32, i32, i32, i32, [6 x i8], i8, i8, i32, i8, i8, i32, i8, i32, ptr, ptr, i32, i32, ptr, ptr, ptr, ptr, ptr, i32, %struct.SockAddr, %struct.SockAddr, i32, i32, i8, i8, i8, i8, i8, i8, ptr, i8, i32, [1 x ptr], i8, i8, ptr, ptr, i32, i32, i32, i8, i8, i32, i32, ptr, i8, i64, ptr, i64, ptr, i32, i32, ptr, i32, i8, i32, i32, i32, i32, ptr, %struct.pg_prng_state, ptr, i32, i32, i32, i32, ptr, i32, i32, i32, i32, ptr, i32, ptr, i8, ptr, ptr, ptr, i32, i8, i8, i8, i8, i8, i8, i8, i8, %struct.PQExpBufferData, i32, %struct.PQExpBufferData }
%struct.PGNoticeHooks = type { ptr, ptr, ptr, ptr }
%struct.SockAddr = type { %struct.sockaddr_storage, i32 }
%struct.sockaddr_storage = type { i16, [118 x i8], i64 }
%struct.pg_prng_state = type { i64, i64 }
%struct.PQExpBufferData = type { ptr, i64, i64 }
%struct.PGEventConnDestroy = type { ptr }
%struct.PGEvent = type { ptr, ptr, ptr, ptr, i8 }

; Function Attrs: nounwind uwtable
define internal void @release_conn_addrinfo(ptr noundef %0) #0 {
  %2 = alloca ptr, align 8
  store ptr %0, ptr %2, align 8
  %3 = load ptr, ptr %2, align 8
  %4 = getelementptr inbounds nuw %struct.pg_conn, ptr %3, i32 0, i32 97
  %5 = load ptr, ptr %4, align 8
  %6 = icmp ne ptr %5, null
  br i1 %6, label %7, label %13

7:                                                ; preds = %1
  %8 = load ptr, ptr %2, align 8
  %9 = getelementptr inbounds nuw %struct.pg_conn, ptr %8, i32 0, i32 97
  %10 = load ptr, ptr %9, align 8
  call void @free(ptr noundef %10) #12
  %11 = load ptr, ptr %2, align 8
  %12 = getelementptr inbounds nuw %struct.pg_conn, ptr %11, i32 0, i32 97
  store ptr null, ptr %12, align 8
  br label %13

13:                                               ; preds = %7, %1
  ret void
}

; Function Attrs: nounwind uwtable
define internal void @freePGconn(ptr noundef %0) #0 {
  %2 = alloca ptr, align 8
  %3 = alloca i32, align 4
  %4 = alloca %struct.PGEventConnDestroy, align 8
  store ptr %0, ptr %2, align 8
  call void @llvm.lifetime.start.p0(i64 4, ptr %3) #12
  store i32 0, ptr %3, align 4
  br label %5

5:                                                ; preds = %40, %1
  %6 = load i32, ptr %3, align 4
  %7 = load ptr, ptr %2, align 8
  %8 = getelementptr inbounds nuw %struct.pg_conn, ptr %7, i32 0, i32 48
  %9 = load i32, ptr %8, align 8
  %10 = icmp slt i32 %6, %9
  br i1 %10, label %12, label %11

11:                                               ; preds = %5
  call void @llvm.lifetime.end.p0(i64 4, ptr %3) #12
  br label %43

12:                                               ; preds = %5
  call void @llvm.lifetime.start.p0(i64 8, ptr %4) #12
  %13 = load ptr, ptr %2, align 8
  %14 = getelementptr inbounds nuw %struct.PGEventConnDestroy, ptr %4, i32 0, i32 0
  store ptr %13, ptr %14, align 8
  %15 = load ptr, ptr %2, align 8
  %16 = getelementptr inbounds nuw %struct.pg_conn, ptr %15, i32 0, i32 47
  %17 = load ptr, ptr %16, align 8
  %18 = load i32, ptr %3, align 4
  %19 = sext i32 %18 to i64
  %20 = getelementptr inbounds %struct.PGEvent, ptr %17, i64 %19
  %21 = getelementptr inbounds nuw %struct.PGEvent, ptr %20, i32 0, i32 0
  %22 = load ptr, ptr %21, align 8
  %23 = load ptr, ptr %2, align 8
  %24 = getelementptr inbounds nuw %struct.pg_conn, ptr %23, i32 0, i32 47
  %25 = load ptr, ptr %24, align 8
  %26 = load i32, ptr %3, align 4
  %27 = sext i32 %26 to i64
  %28 = getelementptr inbounds %struct.PGEvent, ptr %25, i64 %27
  %29 = getelementptr inbounds nuw %struct.PGEvent, ptr %28, i32 0, i32 2
  %30 = load ptr, ptr %29, align 8
  %31 = call i32 %22(i32 noundef 2, ptr noundef %4, ptr noundef %30)
  %32 = load ptr, ptr %2, align 8
  %33 = getelementptr inbounds nuw %struct.pg_conn, ptr %32, i32 0, i32 47
  %34 = load ptr, ptr %33, align 8
  %35 = load i32, ptr %3, align 4
  %36 = sext i32 %35 to i64
  %37 = getelementptr inbounds %struct.PGEvent, ptr %34, i64 %36
  %38 = getelementptr inbounds nuw %struct.PGEvent, ptr %37, i32 0, i32 1
  %39 = load ptr, ptr %38, align 8
  call void @free(ptr noundef %39) #12
  call void @llvm.lifetime.end.p0(i64 8, ptr %4) #12
  br label %40

40:                                               ; preds = %12
  %41 = load i32, ptr %3, align 4
  %42 = add i32 %41, 1
  store i32 %42, ptr %3, align 4
  br label %5, !llvm.loop !42

43:                                               ; preds = %11
  %44 = load ptr, ptr %2, align 8
  call void @release_conn_addrinfo(ptr noundef %44)
  %45 = load ptr, ptr %2, align 8
  call void @pqReleaseConnHosts(ptr noundef %45)
  %46 = load ptr, ptr %2, align 8
  %47 = getelementptr inbounds nuw %struct.pg_conn, ptr %46, i32 0, i32 5
  %48 = load ptr, ptr %47, align 8
  call void @free(ptr noundef %48) #12
  %49 = load ptr, ptr %2, align 8
  %50 = getelementptr inbounds nuw %struct.pg_conn, ptr %49, i32 0, i32 47
  %51 = load ptr, ptr %50, align 8
  call void @free(ptr noundef %51) #12
  %52 = load ptr, ptr %2, align 8
  %53 = getelementptr inbounds nuw %struct.pg_conn, ptr %52, i32 0, i32 0
  %54 = load ptr, ptr %53, align 8
  call void @free(ptr noundef %54) #12
  %55 = load ptr, ptr %2, align 8
  %56 = getelementptr inbounds nuw %struct.pg_conn, ptr %55, i32 0, i32 1
  %57 = load ptr, ptr %56, align 8
  call void @free(ptr noundef %57) #12
  %58 = load ptr, ptr %2, align 8
  %59 = getelementptr inbounds nuw %struct.pg_conn, ptr %58, i32 0, i32 2
  %60 = load ptr, ptr %59, align 8
  call void @free(ptr noundef %60) #12
  %61 = load ptr, ptr %2, align 8
  %62 = getelementptr inbounds nuw %struct.pg_conn, ptr %61, i32 0, i32 3
  %63 = load ptr, ptr %62, align 8
  call void @free(ptr noundef %63) #12
  %64 = load ptr, ptr %2, align 8
  %65 = getelementptr inbounds nuw %struct.pg_conn, ptr %64, i32 0, i32 4
  %66 = load ptr, ptr %65, align 8
  call void @free(ptr noundef %66) #12
  %67 = load ptr, ptr %2, align 8
  %68 = getelementptr inbounds nuw %struct.pg_conn, ptr %67, i32 0, i32 6
  %69 = load ptr, ptr %68, align 8
  call void @free(ptr noundef %69) #12
  %70 = load ptr, ptr %2, align 8
  %71 = getelementptr inbounds nuw %struct.pg_conn, ptr %70, i32 0, i32 7
  %72 = load ptr, ptr %71, align 8
  call void @free(ptr noundef %72) #12
  %73 = load ptr, ptr %2, align 8
  %74 = getelementptr inbounds nuw %struct.pg_conn, ptr %73, i32 0, i32 8
  %75 = load ptr, ptr %74, align 8
  call void @free(ptr noundef %75) #12
  %76 = load ptr, ptr %2, align 8
  %77 = getelementptr inbounds nuw %struct.pg_conn, ptr %76, i32 0, i32 9
  %78 = load ptr, ptr %77, align 8
  call void @free(ptr noundef %78) #12
  %79 = load ptr, ptr %2, align 8
  %80 = getelementptr inbounds nuw %struct.pg_conn, ptr %79, i32 0, i32 10
  %81 = load ptr, ptr %80, align 8
  call void @free(ptr noundef %81) #12
  %82 = load ptr, ptr %2, align 8
  %83 = getelementptr inbounds nuw %struct.pg_conn, ptr %82, i32 0, i32 12
  %84 = load ptr, ptr %83, align 8
  call void @free(ptr noundef %84) #12
  %85 = load ptr, ptr %2, align 8
  %86 = getelementptr inbounds nuw %struct.pg_conn, ptr %85, i32 0, i32 13
  %87 = load ptr, ptr %86, align 8
  %88 = icmp ne ptr %87, null
  br i1 %88, label %89, label %100

89:                                               ; preds = %43
  %90 = load ptr, ptr %2, align 8
  %91 = getelementptr inbounds nuw %struct.pg_conn, ptr %90, i32 0, i32 13
  %92 = load ptr, ptr %91, align 8
  %93 = load ptr, ptr %2, align 8
  %94 = getelementptr inbounds nuw %struct.pg_conn, ptr %93, i32 0, i32 13
  %95 = load ptr, ptr %94, align 8
  %96 = call i64 @strlen(ptr noundef %95) #13
  call void @explicit_bzero(ptr noundef %92, i64 noundef %96) #12
  %97 = load ptr, ptr %2, align 8
  %98 = getelementptr inbounds nuw %struct.pg_conn, ptr %97, i32 0, i32 13
  %99 = load ptr, ptr %98, align 8
  call void @free(ptr noundef %99) #12
  br label %100

100:                                              ; preds = %89, %43
  %101 = load ptr, ptr %2, align 8
  %102 = getelementptr inbounds nuw %struct.pg_conn, ptr %101, i32 0, i32 14
  %103 = load ptr, ptr %102, align 8
  call void @free(ptr noundef %103) #12
  %104 = load ptr, ptr %2, align 8
  %105 = getelementptr inbounds nuw %struct.pg_conn, ptr %104, i32 0, i32 15
  %106 = load ptr, ptr %105, align 8
  call void @free(ptr noundef %106) #12
  %107 = load ptr, ptr %2, align 8
  %108 = getelementptr inbounds nuw %struct.pg_conn, ptr %107, i32 0, i32 16
  %109 = load ptr, ptr %108, align 8
  call void @free(ptr noundef %109) #12
  %110 = load ptr, ptr %2, align 8
  %111 = getelementptr inbounds nuw %struct.pg_conn, ptr %110, i32 0, i32 17
  %112 = load ptr, ptr %111, align 8
  call void @free(ptr noundef %112) #12
  %113 = load ptr, ptr %2, align 8
  %114 = getelementptr inbounds nuw %struct.pg_conn, ptr %113, i32 0, i32 18
  %115 = load ptr, ptr %114, align 8
  call void @free(ptr noundef %115) #12
  %116 = load ptr, ptr %2, align 8
  %117 = getelementptr inbounds nuw %struct.pg_conn, ptr %116, i32 0, i32 19
  %118 = load ptr, ptr %117, align 8
  call void @free(ptr noundef %118) #12
  %119 = load ptr, ptr %2, align 8
  %120 = getelementptr inbounds nuw %struct.pg_conn, ptr %119, i32 0, i32 20
  %121 = load ptr, ptr %120, align 8
  call void @free(ptr noundef %121) #12
  %122 = load ptr, ptr %2, align 8
  %123 = getelementptr inbounds nuw %struct.pg_conn, ptr %122, i32 0, i32 21
  %124 = load ptr, ptr %123, align 8
  call void @free(ptr noundef %124) #12
  %125 = load ptr, ptr %2, align 8
  %126 = getelementptr inbounds nuw %struct.pg_conn, ptr %125, i32 0, i32 24
  %127 = load ptr, ptr %126, align 8
  call void @free(ptr noundef %127) #12
  %128 = load ptr, ptr %2, align 8
  %129 = getelementptr inbounds nuw %struct.pg_conn, ptr %128, i32 0, i32 23
  %130 = load ptr, ptr %129, align 8
  call void @free(ptr noundef %130) #12
  %131 = load ptr, ptr %2, align 8
  %132 = getelementptr inbounds nuw %struct.pg_conn, ptr %131, i32 0, i32 25
  %133 = load ptr, ptr %132, align 8
  %134 = icmp ne ptr %133, null
  br i1 %134, label %135, label %146

135:                                              ; preds = %100
  %136 = load ptr, ptr %2, align 8
  %137 = getelementptr inbounds nuw %struct.pg_conn, ptr %136, i32 0, i32 25
  %138 = load ptr, ptr %137, align 8
  %139 = load ptr, ptr %2, align 8
  %140 = getelementptr inbounds nuw %struct.pg_conn, ptr %139, i32 0, i32 25
  %141 = load ptr, ptr %140, align 8
  %142 = call i64 @strlen(ptr noundef %141) #13
  call void @explicit_bzero(ptr noundef %138, i64 noundef %142) #12
  %143 = load ptr, ptr %2, align 8
  %144 = getelementptr inbounds nuw %struct.pg_conn, ptr %143, i32 0, i32 25
  %145 = load ptr, ptr %144, align 8
  call void @free(ptr noundef %145) #12
  br label %146

146:                                              ; preds = %135, %100
  %147 = load ptr, ptr %2, align 8
  %148 = getelementptr inbounds nuw %struct.pg_conn, ptr %147, i32 0, i32 26
  %149 = load ptr, ptr %148, align 8
  call void @free(ptr noundef %149) #12
  %150 = load ptr, ptr %2, align 8
  %151 = getelementptr inbounds nuw %struct.pg_conn, ptr %150, i32 0, i32 27
  %152 = load ptr, ptr %151, align 8
  call void @free(ptr noundef %152) #12
  %153 = load ptr, ptr %2, align 8
  %154 = getelementptr inbounds nuw %struct.pg_conn, ptr %153, i32 0, i32 28
  %155 = load ptr, ptr %154, align 8
  call void @free(ptr noundef %155) #12
  %156 = load ptr, ptr %2, align 8
  %157 = getelementptr inbounds nuw %struct.pg_conn, ptr %156, i32 0, i32 29
  %158 = load ptr, ptr %157, align 8
  call void @free(ptr noundef %158) #12
  %159 = load ptr, ptr %2, align 8
  %160 = getelementptr inbounds nuw %struct.pg_conn, ptr %159, i32 0, i32 22
  %161 = load ptr, ptr %160, align 8
  call void @free(ptr noundef %161) #12
  %162 = load ptr, ptr %2, align 8
  %163 = getelementptr inbounds nuw %struct.pg_conn, ptr %162, i32 0, i32 30
  %164 = load ptr, ptr %163, align 8
  call void @free(ptr noundef %164) #12
  %165 = load ptr, ptr %2, align 8
  %166 = getelementptr inbounds nuw %struct.pg_conn, ptr %165, i32 0, i32 31
  %167 = load ptr, ptr %166, align 8
  call void @free(ptr noundef %167) #12
  %168 = load ptr, ptr %2, align 8
  %169 = getelementptr inbounds nuw %struct.pg_conn, ptr %168, i32 0, i32 39
  %170 = load ptr, ptr %169, align 8
  call void @free(ptr noundef %170) #12
  %171 = load ptr, ptr %2, align 8
  %172 = getelementptr inbounds nuw %struct.pg_conn, ptr %171, i32 0, i32 36
  %173 = load ptr, ptr %172, align 8
  call void @free(ptr noundef %173) #12
  %174 = load ptr, ptr %2, align 8
  %175 = getelementptr inbounds nuw %struct.pg_conn, ptr %174, i32 0, i32 37
  %176 = load ptr, ptr %175, align 8
  call void @free(ptr noundef %176) #12
  %177 = load ptr, ptr %2, align 8
  %178 = getelementptr inbounds nuw %struct.pg_conn, ptr %177, i32 0, i32 32
  %179 = load ptr, ptr %178, align 8
  call void @free(ptr noundef %179) #12
  %180 = load ptr, ptr %2, align 8
  %181 = getelementptr inbounds nuw %struct.pg_conn, ptr %180, i32 0, i32 33
  %182 = load ptr, ptr %181, align 8
  call void @free(ptr noundef %182) #12
  %183 = load ptr, ptr %2, align 8
  %184 = getelementptr inbounds nuw %struct.pg_conn, ptr %183, i32 0, i32 34
  %185 = load ptr, ptr %184, align 8
  call void @free(ptr noundef %185) #12
  %186 = load ptr, ptr %2, align 8
  %187 = getelementptr inbounds nuw %struct.pg_conn, ptr %186, i32 0, i32 35
  %188 = load ptr, ptr %187, align 8
  call void @free(ptr noundef %188) #12
  %189 = load ptr, ptr %2, align 8
  %190 = getelementptr inbounds nuw %struct.pg_conn, ptr %189, i32 0, i32 67
  %191 = load ptr, ptr %190, align 8
  call void @free(ptr noundef %191) #12
  %192 = load ptr, ptr %2, align 8
  %193 = getelementptr inbounds nuw %struct.pg_conn, ptr %192, i32 0, i32 82
  %194 = load ptr, ptr %193, align 8
  call void @free(ptr noundef %194) #12
  %195 = load ptr, ptr %2, align 8
  %196 = getelementptr inbounds nuw %struct.pg_conn, ptr %195, i32 0, i32 114
  %197 = load ptr, ptr %196, align 8
  call void @free(ptr noundef %197) #12
  %198 = load ptr, ptr %2, align 8
  %199 = getelementptr inbounds nuw %struct.pg_conn, ptr %198, i32 0, i32 119
  %200 = load ptr, ptr %199, align 8
  call void @free(ptr noundef %200) #12
  %201 = load ptr, ptr %2, align 8
  %202 = getelementptr inbounds nuw %struct.pg_conn, ptr %201, i32 0, i32 124
  %203 = load ptr, ptr %202, align 8
  call void @free(ptr noundef %203) #12
  %204 = load ptr, ptr %2, align 8
  %205 = getelementptr inbounds nuw %struct.pg_conn, ptr %204, i32 0, i32 38
  %206 = load ptr, ptr %205, align 8
  call void @free(ptr noundef %206) #12
  %207 = load ptr, ptr %2, align 8
  %208 = getelementptr inbounds nuw %struct.pg_conn, ptr %207, i32 0, i32 40
  %209 = load ptr, ptr %208, align 8
  call void @free(ptr noundef %209) #12
  %210 = load ptr, ptr %2, align 8
  %211 = getelementptr inbounds nuw %struct.pg_conn, ptr %210, i32 0, i32 41
  %212 = load ptr, ptr %211, align 8
  call void @free(ptr noundef %212) #12
  %213 = load ptr, ptr %2, align 8
  %214 = getelementptr inbounds nuw %struct.pg_conn, ptr %213, i32 0, i32 42
  %215 = load ptr, ptr %214, align 8
  call void @free(ptr noundef %215) #12
  %216 = load ptr, ptr %2, align 8
  %217 = getelementptr inbounds nuw %struct.pg_conn, ptr %216, i32 0, i32 140
  call void @termPQExpBuffer(ptr noundef %217)
  %218 = load ptr, ptr %2, align 8
  %219 = getelementptr inbounds nuw %struct.pg_conn, ptr %218, i32 0, i32 142
  call void @termPQExpBuffer(ptr noundef %219)
  %220 = load ptr, ptr %2, align 8
  call void @free(ptr noundef %220) #12
  ret void
}