; Function Attrs: nounwind uwtable
define internal fastcc void @freePGconn(ptr noundef nonnull %0) unnamed_addr #0 {
  %2 = alloca %struct.PGEventConnDestroy, align 8
  %3 = getelementptr inbounds nuw i8, ptr %0, i64 408
  %4 = load i32, ptr %3, align 8
  %5 = icmp sgt i32 %4, 0
  br i1 %5, label %.lr.ph, label %._crit_edge

.lr.ph:                                           ; preds = %1
  %6 = getelementptr inbounds nuw i8, ptr %0, i64 400
  br label %37

._crit_edge:                                      ; preds = %37, %1
  %7 = getelementptr inbounds nuw i8, ptr %0, i64 888
  %8 = load ptr, ptr %7, align 8
  %.not.i = icmp eq ptr %8, null
  br i1 %.not.i, label %release_conn_addrinfo.exit, label %9

9:                                                ; preds = %._crit_edge
  call void @free(ptr noundef nonnull %8) #25
  store ptr null, ptr %7, align 8
  br label %release_conn_addrinfo.exit

release_conn_addrinfo.exit:                       ; preds = %._crit_edge, %9
  call void @pqReleaseConnHosts(ptr noundef nonnull %0)
  %10 = getelementptr inbounds nuw i8, ptr %0, i64 40
  %11 = load ptr, ptr %10, align 8
  call void @free(ptr noundef %11) #25
  %12 = getelementptr inbounds nuw i8, ptr %0, i64 400
  %13 = load ptr, ptr %12, align 8
  call void @free(ptr noundef %13) #25
  %14 = load ptr, ptr %0, align 8
  call void @free(ptr noundef %14) #25
  %15 = getelementptr inbounds nuw i8, ptr %0, i64 8
  %16 = load ptr, ptr %15, align 8
  call void @free(ptr noundef %16) #25
  %17 = getelementptr inbounds nuw i8, ptr %0, i64 16
  %18 = load ptr, ptr %17, align 8
  call void @free(ptr noundef %18) #25
  %19 = getelementptr inbounds nuw i8, ptr %0, i64 24
  %20 = load ptr, ptr %19, align 8
  call void @free(ptr noundef %20) #25
  %21 = getelementptr inbounds nuw i8, ptr %0, i64 32
  %22 = load ptr, ptr %21, align 8
  call void @free(ptr noundef %22) #25
  %23 = getelementptr inbounds nuw i8, ptr %0, i64 48
  %24 = load ptr, ptr %23, align 8
  call void @free(ptr noundef %24) #25
  %25 = getelementptr inbounds nuw i8, ptr %0, i64 56
  %26 = load ptr, ptr %25, align 8
  call void @free(ptr noundef %26) #25
  %27 = getelementptr inbounds nuw i8, ptr %0, i64 64
  %28 = load ptr, ptr %27, align 8
  call void @free(ptr noundef %28) #25
  %29 = getelementptr inbounds nuw i8, ptr %0, i64 72
  %30 = load ptr, ptr %29, align 8
  call void @free(ptr noundef %30) #25
  %31 = getelementptr inbounds nuw i8, ptr %0, i64 80
  %32 = load ptr, ptr %31, align 8
  call void @free(ptr noundef %32) #25
  %33 = getelementptr inbounds nuw i8, ptr %0, i64 96
  %34 = load ptr, ptr %33, align 8
  call void @free(ptr noundef %34) #25
  %35 = getelementptr inbounds nuw i8, ptr %0, i64 104
  %36 = load ptr, ptr %35, align 8
  %.not = icmp eq ptr %36, null
  br i1 %.not, label %53, label %50

37:                                               ; preds = %.lr.ph, %37
  %indvars.iv = phi i64 [ 0, %.lr.ph ], [ %indvars.iv.next, %37 ]
  call void @llvm.lifetime.start.p0(i64 8, ptr nonnull %2) #25
  store ptr %0, ptr %2, align 8
  %38 = load ptr, ptr %6, align 8
  %39 = getelementptr inbounds nuw %struct.PGEvent, ptr %38, i64 %indvars.iv
  %40 = load ptr, ptr %39, align 8
  %41 = getelementptr inbounds nuw i8, ptr %39, i64 16
  %42 = load ptr, ptr %41, align 8
  %43 = call i32 %40(i32 noundef 2, ptr noundef nonnull %2, ptr noundef %42) #25
  %44 = load ptr, ptr %6, align 8
  %45 = getelementptr inbounds nuw %struct.PGEvent, ptr %44, i64 %indvars.iv, i32 1
  %46 = load ptr, ptr %45, align 8
  call void @free(ptr noundef %46) #25
  call void @llvm.lifetime.end.p0(i64 8, ptr nonnull %2) #25
  %indvars.iv.next = add nuw nsw i64 %indvars.iv, 1
  %47 = load i32, ptr %3, align 8
  %48 = sext i32 %47 to i64
  %49 = icmp slt i64 %indvars.iv.next, %48
  br i1 %49, label %37, label %._crit_edge, !llvm.loop !36

50:                                               ; preds = %release_conn_addrinfo.exit
  %51 = call i64 @strlen(ptr noundef nonnull dereferenceable(1) %36) #26
  call void @explicit_bzero(ptr noundef nonnull %36, i64 noundef %51) #25
  %52 = load ptr, ptr %35, align 8
  call void @free(ptr noundef %52) #25
  br label %53

53:                                               ; preds = %50, %release_conn_addrinfo.exit
  %54 = getelementptr inbounds nuw i8, ptr %0, i64 112
  %55 = load ptr, ptr %54, align 8
  call void @free(ptr noundef %55) #25
  %56 = getelementptr inbounds nuw i8, ptr %0, i64 120
  %57 = load ptr, ptr %56, align 8
  call void @free(ptr noundef %57) #25
  %58 = getelementptr inbounds nuw i8, ptr %0, i64 128
  %59 = load ptr, ptr %58, align 8
  call void @free(ptr noundef %59) #25
  %60 = getelementptr inbounds nuw i8, ptr %0, i64 136
  %61 = load ptr, ptr %60, align 8
  call void @free(ptr noundef %61) #25
  %62 = getelementptr inbounds nuw i8, ptr %0, i64 144
  %63 = load ptr, ptr %62, align 8
  call void @free(ptr noundef %63) #25
  %64 = getelementptr inbounds nuw i8, ptr %0, i64 152
  %65 = load ptr, ptr %64, align 8
  call void @free(ptr noundef %65) #25
  %66 = getelementptr inbounds nuw i8, ptr %0, i64 160
  %67 = load ptr, ptr %66, align 8
  call void @free(ptr noundef %67) #25
  %68 = getelementptr inbounds nuw i8, ptr %0, i64 168
  %69 = load ptr, ptr %68, align 8
  call void @free(ptr noundef %69) #25
  %70 = getelementptr inbounds nuw i8, ptr %0, i64 192
  %71 = load ptr, ptr %70, align 8
  call void @free(ptr noundef %71) #25
  %72 = getelementptr inbounds nuw i8, ptr %0, i64 184
  %73 = load ptr, ptr %72, align 8
  call void @free(ptr noundef %73) #25
  %74 = getelementptr inbounds nuw i8, ptr %0, i64 200
  %75 = load ptr, ptr %74, align 8
  %.not70 = icmp eq ptr %75, null
  br i1 %.not70, label %79, label %76

76:                                               ; preds = %53
  %77 = call i64 @strlen(ptr noundef nonnull dereferenceable(1) %75) #26
  call void @explicit_bzero(ptr noundef nonnull %75, i64 noundef %77) #25
  %78 = load ptr, ptr %74, align 8
  call void @free(ptr noundef %78) #25
  br label %79

79:                                               ; preds = %76, %53
  %80 = getelementptr inbounds nuw i8, ptr %0, i64 208
  %81 = load ptr, ptr %80, align 8
  call void @free(ptr noundef %81) #25
  %82 = getelementptr inbounds nuw i8, ptr %0, i64 216
  %83 = load ptr, ptr %82, align 8
  call void @free(ptr noundef %83) #25
  %84 = getelementptr inbounds nuw i8, ptr %0, i64 224
  %85 = load ptr, ptr %84, align 8
  call void @free(ptr noundef %85) #25
  %86 = getelementptr inbounds nuw i8, ptr %0, i64 232
  %87 = load ptr, ptr %86, align 8
  call void @free(ptr noundef %87) #25
  %88 = getelementptr inbounds nuw i8, ptr %0, i64 176
  %89 = load ptr, ptr %88, align 8
  call void @free(ptr noundef %89) #25
  %90 = getelementptr inbounds nuw i8, ptr %0, i64 240
  %91 = load ptr, ptr %90, align 8
  call void @free(ptr noundef %91) #25
  %92 = getelementptr inbounds nuw i8, ptr %0, i64 248
  %93 = load ptr, ptr %92, align 8
  call void @free(ptr noundef %93) #25
  %94 = getelementptr inbounds nuw i8, ptr %0, i64 312
  %95 = load ptr, ptr %94, align 8
  call void @free(ptr noundef %95) #25
  %96 = getelementptr inbounds nuw i8, ptr %0, i64 288
  %97 = load ptr, ptr %96, align 8
  call void @free(ptr noundef %97) #25
  %98 = getelementptr inbounds nuw i8, ptr %0, i64 296
  %99 = load ptr, ptr %98, align 8
  call void @free(ptr noundef %99) #25
  %100 = getelementptr inbounds nuw i8, ptr %0, i64 256
  %101 = load ptr, ptr %100, align 8
  call void @free(ptr noundef %101) #25
  %102 = getelementptr inbounds nuw i8, ptr %0, i64 264
  %103 = load ptr, ptr %102, align 8
  call void @free(ptr noundef %103) #25
  %104 = getelementptr inbounds nuw i8, ptr %0, i64 272
  %105 = load ptr, ptr %104, align 8
  call void @free(ptr noundef %105) #25
  %106 = getelementptr inbounds nuw i8, ptr %0, i64 280
  %107 = load ptr, ptr %106, align 8
  call void @free(ptr noundef %107) #25
  %108 = getelementptr inbounds nuw i8, ptr %0, i64 488
  %109 = load ptr, ptr %108, align 8
  call void @free(ptr noundef %109) #25
  %110 = getelementptr inbounds nuw i8, ptr %0, i64 816
  %111 = load ptr, ptr %110, align 8
  call void @free(ptr noundef %111) #25
  %112 = getelementptr inbounds nuw i8, ptr %0, i64 1000
  %113 = load ptr, ptr %112, align 8
  call void @free(ptr noundef %113) #25
  %114 = getelementptr inbounds nuw i8, ptr %0, i64 1024
  %115 = load ptr, ptr %114, align 8
  call void @free(ptr noundef %115) #25
  %116 = getelementptr inbounds nuw i8, ptr %0, i64 1048
  %117 = load ptr, ptr %116, align 8
  call void @free(ptr noundef %117) #25
  %118 = getelementptr inbounds nuw i8, ptr %0, i64 304
  %119 = load ptr, ptr %118, align 8
  call void @free(ptr noundef %119) #25
  %120 = getelementptr inbounds nuw i8, ptr %0, i64 320
  %121 = load ptr, ptr %120, align 8
  call void @free(ptr noundef %121) #25
  %122 = getelementptr inbounds nuw i8, ptr %0, i64 328
  %123 = load ptr, ptr %122, align 8
  call void @free(ptr noundef %123) #25
  %124 = getelementptr inbounds nuw i8, ptr %0, i64 336
  %125 = load ptr, ptr %124, align 8
  call void @free(ptr noundef %125) #25
  %126 = getelementptr inbounds nuw i8, ptr %0, i64 1120
  call void @termPQExpBuffer(ptr noundef nonnull %126) #25
  %127 = getelementptr inbounds nuw i8, ptr %0, i64 1152
  call void @termPQExpBuffer(ptr noundef nonnull %127) #25
  call void @free(ptr noundef nonnull %0) #25
  ret void
}